target datalayout = "e-m:e-p270:32:32-p271:32:32-p272:64:64-i64:64-i128:128-f80:128-n8:16:32:64-S128"
target triple = "x86_64-pc-linux-gnu"

%"class.rocksdb::CompactOnDeletionCollector" = type <{ %"class.rocksdb::TablePropertiesCollector", [128 x i64], i64, i64, i64, i64, i64, double, i8, [7 x i8], i64, i64, i8, i8, [6 x i8] }>
%"class.rocksdb::TablePropertiesCollector" = type { ptr }

; Function Attrs: inlinehint mustprogress nounwind uwtable
define linkonce_odr void @_ZN7rocksdb24TablePropertiesCollectorC2Ev(ptr noundef nonnull align 8 dereferenceable(8) %0) unnamed_addr #1 comdat align 2 {
  %2 = alloca ptr, align 8
  store ptr %0, ptr %2, align 8, !tbaa !29
  %3 = load ptr, ptr %2, align 8
  store ptr getelementptr inbounds inrange(-16, 80) ({ [12 x ptr] }, ptr @_ZTVN7rocksdb24TablePropertiesCollectorE, i32 0, i32 0, i32 2), ptr %3, align 8, !tbaa !13
  ret void
}

; Function Attrs: mustprogress nounwind uwtable
define void @_ZN7rocksdb26CompactOnDeletionCollectorC2Emmd(ptr noundef nonnull align 8 dereferenceable(1106) %0, i64 noundef %1, i64 noundef %2, double noundef %3) unnamed_addr #0 align 2 {
  %5 = alloca ptr, align 8
  %6 = alloca i64, align 8
  %7 = alloca i64, align 8
  %8 = alloca double, align 8
  store ptr %0, ptr %5, align 8, !tbaa !4
  store i64 %1, ptr %6, align 8, !tbaa !9
  store i64 %2, ptr %7, align 8, !tbaa !9
  store double %3, ptr %8, align 8, !tbaa !11
  %9 = load ptr, ptr %5, align 8
  call void @_ZN7rocksdb24TablePropertiesCollectorC2Ev(ptr noundef nonnull align 8 dereferenceable(8) %9) #6
  store ptr getelementptr inbounds inrange(-16, 80) ({ [12 x ptr] }, ptr @_ZTVN7rocksdb26CompactOnDeletionCollectorE, i32 0, i32 0, i32 2), ptr %9, align 8, !tbaa !13
  %10 = getelementptr inbounds nuw %"class.rocksdb::CompactOnDeletionCollector", ptr %9, i32 0, i32 2
  %11 = load i64, ptr %6, align 8, !tbaa !9
  %12 = add i64 %11, 128
  %13 = sub i64 %12, 1
  %14 = udiv i64 %13, 128
  store i64 %14, ptr %10, align 8, !tbaa !15
  %15 = getelementptr inbounds nuw %"class.rocksdb::CompactOnDeletionCollector", ptr %9, i32 0, i32 3
  store i64 0, ptr %15, align 8, !tbaa !19
  %16 = getelementptr inbounds nuw %"class.rocksdb::CompactOnDeletionCollector", ptr %9, i32 0, i32 4
  store i64 0, ptr %16, align 8, !tbaa !20
  %17 = getelementptr inbounds nuw %"class.rocksdb::CompactOnDeletionCollector", ptr %9, i32 0, i32 5
  store i64 0, ptr %17, align 8, !tbaa !21
  %18 = getelementptr inbounds nuw %"class.rocksdb::CompactOnDeletionCollector", ptr %9, i32 0, i32 6
  %19 = load i64, ptr %7, align 8, !tbaa !9
  store i64 %19, ptr %18, align 8, !tbaa !22
  %20 = getelementptr inbounds nuw %"class.rocksdb::CompactOnDeletionCollector", ptr %9, i32 0, i32 7
  %21 = load double, ptr %8, align 8, !tbaa !11
  store double %21, ptr %20, align 8, !tbaa !23
  %22 = getelementptr inbounds nuw %"class.rocksdb::CompactOnDeletionCollector", ptr %9, i32 0, i32 8
  %23 = load double, ptr %8, align 8, !tbaa !11
  %24 = fcmp ogt double %23, 0.000000e+00
  br i1 %24, label %25, label %28

25:                                               ; preds = %4
  %26 = load double, ptr %8, align 8, !tbaa !11
  %27 = fcmp ole double %26, 1.000000e+00
  br label %28

28:                                               ; preds = %25, %4
  %29 = phi i1 [ false, %4 ], [ %27, %25 ]
  %30 = zext i1 %29 to i8
  store i8 %30, ptr %22, align 8, !tbaa !24
  %31 = getelementptr inbounds nuw %"class.rocksdb::CompactOnDeletionCollector", ptr %9, i32 0, i32 10
  store i64 0, ptr %31, align 8, !tbaa !25
  %32 = getelementptr inbounds nuw %"class.rocksdb::CompactOnDeletionCollector", ptr %9, i32 0, i32 11
  store i64 0, ptr %32, align 8, !tbaa !26
  %33 = getelementptr inbounds nuw %"class.rocksdb::CompactOnDeletionCollector", ptr %9, i32 0, i32 12
  store i8 0, ptr %33, align 8, !tbaa !27
  %34 = getelementptr inbounds nuw %"class.rocksdb::CompactOnDeletionCollector", ptr %9, i32 0, i32 13
  store i8 0, ptr %34, align 1, !tbaa !28
  %35 = getelementptr inbounds nuw %"class.rocksdb::CompactOnDeletionCollector", ptr %9, i32 0, i32 1
  %36 = getelementptr inbounds [128 x i64], ptr %35, i64 0, i64 0
  call void @llvm.memset.p0.i64(ptr align 8 %36, i8 0, i64 1024, i1 false)
  ret void
}