; Function Attrs: mustprogress nofree norecurse nosync nounwind willreturn memory(argmem: write) uwtable
define void @_ZN7rocksdb26CompactOnDeletionCollectorC2Emmd(ptr noundef nonnull writeonly align 8 captures(none) dereferenceable(1106) initializes((0, 1081), (1088, 1106)) %0, i64 noundef %1, i64 noundef %2, double noundef %3) unnamed_addr #0 align 2 {
  store ptr getelementptr inbounds nuw inrange(-16, 80) (i8, ptr @_ZTVN7rocksdb26CompactOnDeletionCollectorE, i64 16), ptr %0, align 8, !tbaa !4
  %5 = getelementptr inbounds nuw i8, ptr %0, i64 1032
  %6 = add i64 %1, 127
  %7 = lshr i64 %6, 7
  store i64 %7, ptr %5, align 8, !tbaa !7
  %8 = getelementptr inbounds nuw i8, ptr %0, i64 1040
  %9 = getelementptr inbounds nuw i8, ptr %0, i64 1064
  tail call void @llvm.memset.p0.i64(ptr noundef nonnull align 8 dereferenceable(24) %8, i8 0, i64 24, i1 false)
  store i64 %2, ptr %9, align 8, !tbaa !14
  %10 = getelementptr inbounds nuw i8, ptr %0, i64 1072
  store double %3, ptr %10, align 8, !tbaa !15
  %11 = getelementptr inbounds nuw i8, ptr %0, i64 1080
  %12 = fcmp ogt double %3, 0.000000e+00
  %13 = fcmp ole double %3, 1.000000e+00
  %14 = and i1 %12, %13
  %15 = zext i1 %14 to i8
  store i8 %15, ptr %11, align 8, !tbaa !16
  %16 = getelementptr inbounds nuw i8, ptr %0, i64 1088
  %17 = getelementptr inbounds nuw i8, ptr %0, i64 8
  tail call void @llvm.memset.p0.i64(ptr noundef nonnull align 8 dereferenceable(1024) %17, i8 0, i64 1024, i1 false)
  tail call void @llvm.memset.p0.i64(ptr noundef nonnull align 8 dereferenceable(18) %16, i8 0, i64 18, i1 false)
  ret void
}